target datalayout = "e-m:e-p270:32:32-p271:32:32-p272:64:64-i64:64-i128:128-f80:128-n8:16:32:64-S128"
target triple = "x86_64-pc-linux-gnu"

%struct.b2Vec2 = type { float, float }
%struct.b2Transform = type { %struct.b2Vec2, %struct.b2Rot }
%struct.b2Rot = type { float, float }
%struct.b2Polygon = type { [8 x %struct.b2Vec2], [8 x %struct.b2Vec2], %struct.b2Vec2, float, i32 }
%struct.b2DistanceInput = type { %struct.b2ShapeProxy, %struct.b2ShapeProxy, %struct.b2Transform, %struct.b2Transform, i8 }
%struct.b2ShapeProxy = type { [8 x %struct.b2Vec2], i32, float }
%struct.b2SimplexCache = type { i16, [3 x i8], [3 x i8] }
%struct.b2DistanceOutput = type { %struct.b2Vec2, %struct.b2Vec2, float, i32, i32 }

@b2Transform_identity = internal constant %struct.b2Transform { %struct.b2Vec2 zeroinitializer, %struct.b2Rot { float 1.000000e+00, float 0.000000e+00 } }, align 4

; Function Attrs: nounwind uwtable
define zeroext i1 @b2PointInPolygon(<2 x float> %0, ptr noundef %1) #0 {
  %3 = alloca %struct.b2Vec2, align 4
  %4 = alloca ptr, align 8
  %5 = alloca %struct.b2DistanceInput, align 4
  %6 = alloca %struct.b2ShapeProxy, align 4
  %7 = alloca %struct.b2ShapeProxy, align 4
  %8 = alloca %struct.b2SimplexCache, align 2
  %9 = alloca %struct.b2DistanceOutput, align 4
  store <2 x float> %0, ptr %3, align 4
  store ptr %1, ptr %4, align 8, !tbaa !45
  call void @llvm.lifetime.start.p0(i64 180, ptr %5) #9
  call void @llvm.memset.p0.i64(ptr align 4 %5, i8 0, i64 180, i1 false)
  %10 = getelementptr inbounds nuw %struct.b2DistanceInput, ptr %5, i32 0, i32 0
  call void @llvm.lifetime.start.p0(i64 72, ptr %6) #9
  %11 = load ptr, ptr %4, align 8, !tbaa !45
  %12 = getelementptr inbounds nuw %struct.b2Polygon, ptr %11, i32 0, i32 0
  %13 = getelementptr inbounds [8 x %struct.b2Vec2], ptr %12, i64 0, i64 0
  %14 = load ptr, ptr %4, align 8, !tbaa !45
  %15 = getelementptr inbounds nuw %struct.b2Polygon, ptr %14, i32 0, i32 4
  %16 = load i32, ptr %15, align 4, !tbaa !22
  call void @b2MakeProxy(ptr dead_on_unwind writable sret(%struct.b2ShapeProxy) align 4 %6, ptr noundef %13, i32 noundef %16, float noundef 0.000000e+00)
  call void @llvm.memcpy.p0.p0.i64(ptr align 4 %10, ptr align 4 %6, i64 72, i1 false), !tbaa.struct !69
  call void @llvm.lifetime.end.p0(i64 72, ptr %6) #9
  %17 = getelementptr inbounds nuw %struct.b2DistanceInput, ptr %5, i32 0, i32 1
  call void @llvm.lifetime.start.p0(i64 72, ptr %7) #9
  call void @b2MakeProxy(ptr dead_on_unwind writable sret(%struct.b2ShapeProxy) align 4 %7, ptr noundef %3, i32 noundef 1, float noundef 0.000000e+00)
  call void @llvm.memcpy.p0.p0.i64(ptr align 4 %17, ptr align 4 %7, i64 72, i1 false), !tbaa.struct !69
  call void @llvm.lifetime.end.p0(i64 72, ptr %7) #9
  %18 = getelementptr inbounds nuw %struct.b2DistanceInput, ptr %5, i32 0, i32 2
  call void @llvm.memcpy.p0.p0.i64(ptr align 4 %18, ptr align 4 @b2Transform_identity, i64 16, i1 false), !tbaa.struct !70
  %19 = getelementptr inbounds nuw %struct.b2DistanceInput, ptr %5, i32 0, i32 3
  call void @llvm.memcpy.p0.p0.i64(ptr align 4 %19, ptr align 4 @b2Transform_identity, i64 16, i1 false), !tbaa.struct !70
  %20 = getelementptr inbounds nuw %struct.b2DistanceInput, ptr %5, i32 0, i32 4
  store i8 0, ptr %20, align 4, !tbaa !71
  call void @llvm.lifetime.start.p0(i64 8, ptr %8) #9
  call void @llvm.memset.p0.i64(ptr align 2 %8, i8 0, i64 8, i1 false)
  call void @llvm.lifetime.start.p0(i64 28, ptr %9) #9
  call void @b2ShapeDistance(ptr dead_on_unwind writable sret(%struct.b2DistanceOutput) align 4 %9, ptr noundef %8, ptr noundef %5, ptr noundef null, i32 noundef 0)
  %21 = getelementptr inbounds nuw %struct.b2DistanceOutput, ptr %9, i32 0, i32 2
  %22 = load float, ptr %21, align 4, !tbaa !74
  %23 = load ptr, ptr %4, align 8, !tbaa !45
  %24 = getelementptr inbounds nuw %struct.b2Polygon, ptr %23, i32 0, i32 3
  %25 = load float, ptr %24, align 4, !tbaa !24
  %26 = fcmp ole float %22, %25
  call void @llvm.lifetime.end.p0(i64 28, ptr %9) #9
  call void @llvm.lifetime.end.p0(i64 8, ptr %8) #9
  call void @llvm.lifetime.end.p0(i64 180, ptr %5) #9
  ret i1 %26
}