; Function Attrs: nounwind uwtable
define zeroext i1 @b2PointInPolygon(<2 x float> %0, ptr noundef %1) local_unnamed_addr #0 {
  %3 = alloca %struct.b2Vec2, align 8
  %4 = alloca %struct.b2DistanceInput, align 4
  %5 = alloca %struct.b2ShapeProxy, align 4
  %6 = alloca %struct.b2SimplexCache, align 8
  %7 = alloca %struct.b2DistanceOutput, align 4
  store <2 x float> %0, ptr %3, align 8
  call void @llvm.lifetime.start.p0(i64 180, ptr nonnull %4) #17
  %8 = getelementptr inbounds nuw i8, ptr %1, i64 140
  %9 = load i32, ptr %8, align 4, !tbaa !18
  call void @b2MakeProxy(ptr dead_on_unwind nonnull writable sret(%struct.b2ShapeProxy) align 4 %4, ptr noundef %1, i32 noundef %9, float noundef 0.000000e+00) #17
  %10 = getelementptr inbounds nuw i8, ptr %4, i64 72
  call void @llvm.lifetime.start.p0(i64 72, ptr nonnull %5) #17
  call void @b2MakeProxy(ptr dead_on_unwind nonnull writable sret(%struct.b2ShapeProxy) align 4 %5, ptr noundef nonnull %3, i32 noundef 1, float noundef 0.000000e+00) #17
  call void @llvm.memcpy.p0.p0.i64(ptr noundef nonnull align 4 dereferenceable(72) %10, ptr noundef nonnull align 4 dereferenceable(72) %5, i64 72, i1 false), !tbaa.struct !54
  call void @llvm.lifetime.end.p0(i64 72, ptr nonnull %5) #17
  %11 = getelementptr inbounds nuw i8, ptr %4, i64 144
  call void @llvm.memcpy.p0.p0.i64(ptr noundef nonnull align 4 dereferenceable(16) %11, ptr noundef nonnull align 4 dereferenceable(16) @b2Transform_identity, i64 16, i1 false), !tbaa.struct !55
  %12 = getelementptr inbounds nuw i8, ptr %4, i64 160
  %13 = getelementptr inbounds nuw i8, ptr %4, i64 176
  store i32 0, ptr %13, align 4
  call void @llvm.memcpy.p0.p0.i64(ptr noundef nonnull align 4 dereferenceable(16) %12, ptr noundef nonnull align 4 dereferenceable(16) @b2Transform_identity, i64 16, i1 false), !tbaa.struct !55
  call void @llvm.lifetime.start.p0(i64 8, ptr nonnull %6) #17
  store i64 0, ptr %6, align 8
  call void @llvm.lifetime.start.p0(i64 28, ptr nonnull %7) #17
  call void @b2ShapeDistance(ptr dead_on_unwind nonnull writable sret(%struct.b2DistanceOutput) align 4 %7, ptr noundef nonnull %6, ptr noundef nonnull %4, ptr noundef null, i32 noundef 0) #17
  %14 = getelementptr inbounds nuw i8, ptr %7, i64 16
  %15 = load float, ptr %14, align 4, !tbaa !56
  %16 = getelementptr inbounds nuw i8, ptr %1, i64 136
  %17 = load float, ptr %16, align 4, !tbaa !20
  %18 = fcmp ole float %15, %17
  call void @llvm.lifetime.end.p0(i64 28, ptr nonnull %7) #17
  call void @llvm.lifetime.end.p0(i64 8, ptr nonnull %6) #17
  call void @llvm.lifetime.end.p0(i64 180, ptr nonnull %4) #17
  ret i1 %18
}